target datalayout = "e-m:e-p270:32:32-p271:32:32-p272:64:64-i64:64-i128:128-f80:128-n8:16:32:64-S128"
target triple = "x86_64-pc-linux-gnu"

; Function Attrs: nounwind uwtable
define internal void @pred8x8l_vertical_14_c(ptr noundef %0, i32 noundef %1, i32 noundef %2, i64 noundef %3) #1 {
  %5 = alloca ptr, align 8
  %6 = alloca i32, align 4
  %7 = alloca i32, align 4
  %8 = alloca i64, align 8
  %9 = alloca i32, align 4
  %10 = alloca ptr, align 8
  %11 = alloca i32, align 4
  %12 = alloca i64, align 8
  %13 = alloca i64, align 8
  %14 = alloca i32, align 4
  %15 = alloca i32, align 4
  %16 = alloca i32, align 4
  %17 = alloca i32, align 4
  %18 = alloca i32, align 4
  %19 = alloca i32, align 4
  %20 = alloca i32, align 4
  %21 = alloca i32, align 4
  store ptr %0, ptr %5, align 8, !tbaa !12
  store i32 %1, ptr %6, align 4, !tbaa !9
  store i32 %2, ptr %7, align 4, !tbaa !9
  store i64 %3, ptr %8, align 8, !tbaa !14
  call void @llvm.lifetime.start.p0(i64 4, ptr %9) #9
  call void @llvm.lifetime.start.p0(i64 8, ptr %10) #9
  %22 = load ptr, ptr %5, align 8, !tbaa !12
  store ptr %22, ptr %10, align 8, !tbaa !16
  call void @llvm.lifetime.start.p0(i64 4, ptr %11) #9
  %23 = load i64, ptr %8, align 8, !tbaa !14
  %24 = ashr i64 %23, 1
  %25 = trunc i64 %24 to i32
  store i32 %25, ptr %11, align 4, !tbaa !9
  call void @llvm.lifetime.start.p0(i64 8, ptr %12) #9
  call void @llvm.lifetime.start.p0(i64 8, ptr %13) #9
  call void @llvm.lifetime.start.p0(i64 4, ptr %14) #9
  %26 = load i32, ptr %6, align 4, !tbaa !9
  %27 = icmp ne i32 %26, 0
  br i1 %27, label %28, label %37

28:                                               ; preds = %4
  %29 = load ptr, ptr %10, align 8, !tbaa !16
  %30 = load i32, ptr %11, align 4, !tbaa !9
  %31 = mul nsw i32 -1, %30
  %32 = add nsw i32 -1, %31
  %33 = sext i32 %32 to i64
  %34 = getelementptr inbounds i16, ptr %29, i64 %33
  %35 = load i16, ptr %34, align 2, !tbaa !19
  %36 = zext i16 %35 to i32
  br label %46

37:                                               ; preds = %4
  %38 = load ptr, ptr %10, align 8, !tbaa !16
  %39 = load i32, ptr %11, align 4, !tbaa !9
  %40 = mul nsw i32 -1, %39
  %41 = add nsw i32 0, %40
  %42 = sext i32 %41 to i64
  %43 = getelementptr inbounds i16, ptr %38, i64 %42
  %44 = load i16, ptr %43, align 2, !tbaa !19
  %45 = zext i16 %44 to i32
  br label %46

46:                                               ; preds = %37, %28
  %47 = phi i32 [ %36, %28 ], [ %45, %37 ]
  %48 = load ptr, ptr %10, align 8, !tbaa !16
  %49 = load i32, ptr %11, align 4, !tbaa !9
  %50 = mul nsw i32 -1, %49
  %51 = add nsw i32 0, %50
  %52 = sext i32 %51 to i64
  %53 = getelementptr inbounds i16, ptr %48, i64 %52
  %54 = load i16, ptr %53, align 2, !tbaa !19
  %55 = zext i16 %54 to i32
  %56 = mul nsw i32 2, %55
  %57 = add nsw i32 %47, %56
  %58 = load ptr, ptr %10, align 8, !tbaa !16
  %59 = load i32, ptr %11, align 4, !tbaa !9
  %60 = mul nsw i32 -1, %59
  %61 = add nsw i32 1, %60
  %62 = sext i32 %61 to i64
  %63 = getelementptr inbounds i16, ptr %58, i64 %62
  %64 = load i16, ptr %63, align 2, !tbaa !19
  %65 = zext i16 %64 to i32
  %66 = add nsw i32 %57, %65
  %67 = add nsw i32 %66, 2
  %68 = ashr i32 %67, 2
  store i32 %68, ptr %14, align 4, !tbaa !9
  call void @llvm.lifetime.start.p0(i64 4, ptr %15) #9
  %69 = load ptr, ptr %10, align 8, !tbaa !16
  %70 = load i32, ptr %11, align 4, !tbaa !9
  %71 = mul nsw i32 -1, %70
  %72 = add nsw i32 0, %71
  %73 = sext i32 %72 to i64
  %74 = getelementptr inbounds i16, ptr %69, i64 %73
  %75 = load i16, ptr %74, align 2, !tbaa !19
  %76 = zext i16 %75 to i32
  %77 = load ptr, ptr %10, align 8, !tbaa !16
  %78 = load i32, ptr %11, align 4, !tbaa !9
  %79 = mul nsw i32 -1, %78
  %80 = add nsw i32 1, %79
  %81 = sext i32 %80 to i64
  %82 = getelementptr inbounds i16, ptr %77, i64 %81
  %83 = load i16, ptr %82, align 2, !tbaa !19
  %84 = zext i16 %83 to i32
  %85 = mul nsw i32 2, %84
  %86 = add nsw i32 %76, %85
  %87 = load ptr, ptr %10, align 8, !tbaa !16
  %88 = load i32, ptr %11, align 4, !tbaa !9
  %89 = mul nsw i32 -1, %88
  %90 = add nsw i32 2, %89
  %91 = sext i32 %90 to i64
  %92 = getelementptr inbounds i16, ptr %87, i64 %91
  %93 = load i16, ptr %92, align 2, !tbaa !19
  %94 = zext i16 %93 to i32
  %95 = add nsw i32 %86, %94
  %96 = add nsw i32 %95, 2
  %97 = ashr i32 %96, 2
  store i32 %97, ptr %15, align 4, !tbaa !9
  call void @llvm.lifetime.start.p0(i64 4, ptr %16) #9
  %98 = load ptr, ptr %10, align 8, !tbaa !16
  %99 = load i32, ptr %11, align 4, !tbaa !9
  %100 = mul nsw i32 -1, %99
  %101 = add nsw i32 1, %100
  %102 = sext i32 %101 to i64
  %103 = getelementptr inbounds i16, ptr %98, i64 %102
  %104 = load i16, ptr %103, align 2, !tbaa !19
  %105 = zext i16 %104 to i32
  %106 = load ptr, ptr %10, align 8, !tbaa !16
  %107 = load i32, ptr %11, align 4, !tbaa !9
  %108 = mul nsw i32 -1, %107
  %109 = add nsw i32 2, %108
  %110 = sext i32 %109 to i64
  %111 = getelementptr inbounds i16, ptr %106, i64 %110
  %112 = load i16, ptr %111, align 2, !tbaa !19
  %113 = zext i16 %112 to i32
  %114 = mul nsw i32 2, %113
  %115 = add nsw i32 %105, %114
  %116 = load ptr, ptr %10, align 8, !tbaa !16
  %117 = load i32, ptr %11, align 4, !tbaa !9
  %118 = mul nsw i32 -1, %117
  %119 = add nsw i32 3, %118
  %120 = sext i32 %119 to i64
  %121 = getelementptr inbounds i16, ptr %116, i64 %120
  %122 = load i16, ptr %121, align 2, !tbaa !19
  %123 = zext i16 %122 to i32
  %124 = add nsw i32 %115, %123
  %125 = add nsw i32 %124, 2
  %126 = ashr i32 %125, 2
  store i32 %126, ptr %16, align 4, !tbaa !9
  call void @llvm.lifetime.start.p0(i64 4, ptr %17) #9
  %127 = load ptr, ptr %10, align 8, !tbaa !16
  %128 = load i32, ptr %11, align 4, !tbaa !9
  %129 = mul nsw i32 -1, %128
  %130 = add nsw i32 2, %129
  %131 = sext i32 %130 to i64
  %132 = getelementptr inbounds i16, ptr %127, i64 %131
  %133 = load i16, ptr %132, align 2, !tbaa !19
  %134 = zext i16 %133 to i32
  %135 = load ptr, ptr %10, align 8, !tbaa !16
  %136 = load i32, ptr %11, align 4, !tbaa !9
  %137 = mul nsw i32 -1, %136
  %138 = add nsw i32 3, %137
  %139 = sext i32 %138 to i64
  %140 = getelementptr inbounds i16, ptr %135, i64 %139
  %141 = load i16, ptr %140, align 2, !tbaa !19
  %142 = zext i16 %141 to i32
  %143 = mul nsw i32 2, %142
  %144 = add nsw i32 %134, %143
  %145 = load ptr, ptr %10, align 8, !tbaa !16
  %146 = load i32, ptr %11, align 4, !tbaa !9
  %147 = mul nsw i32 -1, %146
  %148 = add nsw i32 4, %147
  %149 = sext i32 %148 to i64
  %150 = getelementptr inbounds i16, ptr %145, i64 %149
  %151 = load i16, ptr %150, align 2, !tbaa !19
  %152 = zext i16 %151 to i32
  %153 = add nsw i32 %144, %152
  %154 = add nsw i32 %153, 2
  %155 = ashr i32 %154, 2
  store i32 %155, ptr %17, align 4, !tbaa !9
  call void @llvm.lifetime.start.p0(i64 4, ptr %18) #9
  %156 = load ptr, ptr %10, align 8, !tbaa !16
  %157 = load i32, ptr %11, align 4, !tbaa !9
  %158 = mul nsw i32 -1, %157
  %159 = add nsw i32 3, %158
  %160 = sext i32 %159 to i64
  %161 = getelementptr inbounds i16, ptr %156, i64 %160
  %162 = load i16, ptr %161, align 2, !tbaa !19
  %163 = zext i16 %162 to i32
  %164 = load ptr, ptr %10, align 8, !tbaa !16
  %165 = load i32, ptr %11, align 4, !tbaa !9
  %166 = mul nsw i32 -1, %165
  %167 = add nsw i32 4, %166
  %168 = sext i32 %167 to i64
  %169 = getelementptr inbounds i16, ptr %164, i64 %168
  %170 = load i16, ptr %169, align 2, !tbaa !19
  %171 = zext i16 %170 to i32
  %172 = mul nsw i32 2, %171
  %173 = add nsw i32 %163, %172
  %174 = load ptr, ptr %10, align 8, !tbaa !16
  %175 = load i32, ptr %11, align 4, !tbaa !9
  %176 = mul nsw i32 -1, %175
  %177 = add nsw i32 5, %176
  %178 = sext i32 %177 to i64
  %179 = getelementptr inbounds i16, ptr %174, i64 %178
  %180 = load i16, ptr %179, align 2, !tbaa !19
  %181 = zext i16 %180 to i32
  %182 = add nsw i32 %173, %181
  %183 = add nsw i32 %182, 2
  %184 = ashr i32 %183, 2
  store i32 %184, ptr %18, align 4, !tbaa !9
  call void @llvm.lifetime.start.p0(i64 4, ptr %19) #9
  %185 = load ptr, ptr %10, align 8, !tbaa !16
  %186 = load i32, ptr %11, align 4, !tbaa !9
  %187 = mul nsw i32 -1, %186
  %188 = add nsw i32 4, %187
  %189 = sext i32 %188 to i64
  %190 = getelementptr inbounds i16, ptr %185, i64 %189
  %191 = load i16, ptr %190, align 2, !tbaa !19
  %192 = zext i16 %191 to i32
  %193 = load ptr, ptr %10, align 8, !tbaa !16
  %194 = load i32, ptr %11, align 4, !tbaa !9
  %195 = mul nsw i32 -1, %194
  %196 = add nsw i32 5, %195
  %197 = sext i32 %196 to i64
  %198 = getelementptr inbounds i16, ptr %193, i64 %197
  %199 = load i16, ptr %198, align 2, !tbaa !19
  %200 = zext i16 %199 to i32
  %201 = mul nsw i32 2, %200
  %202 = add nsw i32 %192, %201
  %203 = load ptr, ptr %10, align 8, !tbaa !16
  %204 = load i32, ptr %11, align 4, !tbaa !9
  %205 = mul nsw i32 -1, %204
  %206 = add nsw i32 6, %205
  %207 = sext i32 %206 to i64
  %208 = getelementptr inbounds i16, ptr %203, i64 %207
  %209 = load i16, ptr %208, align 2, !tbaa !19
  %210 = zext i16 %209 to i32
  %211 = add nsw i32 %202, %210
  %212 = add nsw i32 %211, 2
  %213 = ashr i32 %212, 2
  store i32 %213, ptr %19, align 4, !tbaa !9
  call void @llvm.lifetime.start.p0(i64 4, ptr %20) #9
  %214 = load ptr, ptr %10, align 8, !tbaa !16
  %215 = load i32, ptr %11, align 4, !tbaa !9
  %216 = mul nsw i32 -1, %215
  %217 = add nsw i32 5, %216
  %218 = sext i32 %217 to i64
  %219 = getelementptr inbounds i16, ptr %214, i64 %218
  %220 = load i16, ptr %219, align 2, !tbaa !19
  %221 = zext i16 %220 to i32
  %222 = load ptr, ptr %10, align 8, !tbaa !16
  %223 = load i32, ptr %11, align 4, !tbaa !9
  %224 = mul nsw i32 -1, %223
  %225 = add nsw i32 6, %224
  %226 = sext i32 %225 to i64
  %227 = getelementptr inbounds i16, ptr %222, i64 %226
  %228 = load i16, ptr %227, align 2, !tbaa !19
  %229 = zext i16 %228 to i32
  %230 = mul nsw i32 2, %229
  %231 = add nsw i32 %221, %230
  %232 = load ptr, ptr %10, align 8, !tbaa !16
  %233 = load i32, ptr %11, align 4, !tbaa !9
  %234 = mul nsw i32 -1, %233
  %235 = add nsw i32 7, %234
  %236 = sext i32 %235 to i64
  %237 = getelementptr inbounds i16, ptr %232, i64 %236
  %238 = load i16, ptr %237, align 2, !tbaa !19
  %239 = zext i16 %238 to i32
  %240 = add nsw i32 %231, %239
  %241 = add nsw i32 %240, 2
  %242 = ashr i32 %241, 2
  store i32 %242, ptr %20, align 4, !tbaa !9
  call void @llvm.lifetime.start.p0(i64 4, ptr %21) #9
  %243 = load i32, ptr %7, align 4, !tbaa !9
  %244 = icmp ne i32 %243, 0
  br i1 %244, label %245, label %254

245:                                              ; preds = %46
  %246 = load ptr, ptr %10, align 8, !tbaa !16
  %247 = load i32, ptr %11, align 4, !tbaa !9
  %248 = mul nsw i32 -1, %247
  %249 = add nsw i32 8, %248
  %250 = sext i32 %249 to i64
  %251 = getelementptr inbounds i16, ptr %246, i64 %250
  %252 = load i16, ptr %251, align 2, !tbaa !19
  %253 = zext i16 %252 to i32
  br label %263

254:                                              ; preds = %46
  %255 = load ptr, ptr %10, align 8, !tbaa !16
  %256 = load i32, ptr %11, align 4, !tbaa !9
  %257 = mul nsw i32 -1, %256
  %258 = add nsw i32 7, %257
  %259 = sext i32 %258 to i64
  %260 = getelementptr inbounds i16, ptr %255, i64 %259
  %261 = load i16, ptr %260, align 2, !tbaa !19
  %262 = zext i16 %261 to i32
  br label %263

263:                                              ; preds = %254, %245
  %264 = phi i32 [ %253, %245 ], [ %262, %254 ]
  %265 = load ptr, ptr %10, align 8, !tbaa !16
  %266 = load i32, ptr %11, align 4, !tbaa !9
  %267 = mul nsw i32 -1, %266
  %268 = add nsw i32 7, %267
  %269 = sext i32 %268 to i64
  %270 = getelementptr inbounds i16, ptr %265, i64 %269
  %271 = load i16, ptr %270, align 2, !tbaa !19
  %272 = zext i16 %271 to i32
  %273 = mul nsw i32 2, %272
  %274 = add nsw i32 %264, %273
  %275 = load ptr, ptr %10, align 8, !tbaa !16
  %276 = load i32, ptr %11, align 4, !tbaa !9
  %277 = mul nsw i32 -1, %276
  %278 = add nsw i32 6, %277
  %279 = sext i32 %278 to i64
  %280 = getelementptr inbounds i16, ptr %275, i64 %279
  %281 = load i16, ptr %280, align 2, !tbaa !19
  %282 = zext i16 %281 to i32
  %283 = add nsw i32 %274, %282
  %284 = add nsw i32 %283, 2
  %285 = ashr i32 %284, 2
  store i32 %285, ptr %21, align 4, !tbaa !9
  %286 = load i32, ptr %14, align 4, !tbaa !9
  %287 = trunc i32 %286 to i16
  %288 = load ptr, ptr %10, align 8, !tbaa !16
  %289 = getelementptr inbounds i16, ptr %288, i64 0
  store i16 %287, ptr %289, align 2, !tbaa !19
  %290 = load i32, ptr %15, align 4, !tbaa !9
  %291 = trunc i32 %290 to i16
  %292 = load ptr, ptr %10, align 8, !tbaa !16
  %293 = getelementptr inbounds i16, ptr %292, i64 1
  store i16 %291, ptr %293, align 2, !tbaa !19
  %294 = load i32, ptr %16, align 4, !tbaa !9
  %295 = trunc i32 %294 to i16
  %296 = load ptr, ptr %10, align 8, !tbaa !16
  %297 = getelementptr inbounds i16, ptr %296, i64 2
  store i16 %295, ptr %297, align 2, !tbaa !19
  %298 = load i32, ptr %17, align 4, !tbaa !9
  %299 = trunc i32 %298 to i16
  %300 = load ptr, ptr %10, align 8, !tbaa !16
  %301 = getelementptr inbounds i16, ptr %300, i64 3
  store i16 %299, ptr %301, align 2, !tbaa !19
  %302 = load i32, ptr %18, align 4, !tbaa !9
  %303 = trunc i32 %302 to i16
  %304 = load ptr, ptr %10, align 8, !tbaa !16
  %305 = getelementptr inbounds i16, ptr %304, i64 4
  store i16 %303, ptr %305, align 2, !tbaa !19
  %306 = load i32, ptr %19, align 4, !tbaa !9
  %307 = trunc i32 %306 to i16
  %308 = load ptr, ptr %10, align 8, !tbaa !16
  %309 = getelementptr inbounds i16, ptr %308, i64 5
  store i16 %307, ptr %309, align 2, !tbaa !19
  %310 = load i32, ptr %20, align 4, !tbaa !9
  %311 = trunc i32 %310 to i16
  %312 = load ptr, ptr %10, align 8, !tbaa !16
  %313 = getelementptr inbounds i16, ptr %312, i64 6
  store i16 %311, ptr %313, align 2, !tbaa !19
  %314 = load i32, ptr %21, align 4, !tbaa !9
  %315 = trunc i32 %314 to i16
  %316 = load ptr, ptr %10, align 8, !tbaa !16
  %317 = getelementptr inbounds i16, ptr %316, i64 7
  store i16 %315, ptr %317, align 2, !tbaa !19
  %318 = load ptr, ptr %10, align 8, !tbaa !16
  %319 = getelementptr inbounds i64, ptr %318, i64 0
  %320 = load i64, ptr %319, align 8, !tbaa !18
  store i64 %320, ptr %12, align 8, !tbaa !14
  %321 = load ptr, ptr %10, align 8, !tbaa !16
  %322 = getelementptr inbounds i64, ptr %321, i64 1
  %323 = load i64, ptr %322, align 8, !tbaa !18
  store i64 %323, ptr %13, align 8, !tbaa !14
  store i32 1, ptr %9, align 4, !tbaa !9
  br label %324

324:                                              ; preds = %344, %263
  %325 = load i32, ptr %9, align 4, !tbaa !9
  %326 = icmp slt i32 %325, 8
  br i1 %326, label %327, label %347

327:                                              ; preds = %324
  %328 = load i64, ptr %12, align 8, !tbaa !14
  %329 = load ptr, ptr %10, align 8, !tbaa !16
  %330 = load i32, ptr %9, align 4, !tbaa !9
  %331 = load i32, ptr %11, align 4, !tbaa !9
  %332 = mul nsw i32 %330, %331
  %333 = sext i32 %332 to i64
  %334 = getelementptr inbounds i16, ptr %329, i64 %333
  %335 = getelementptr inbounds i64, ptr %334, i64 0
  store i64 %328, ptr %335, align 8, !tbaa !18
  %336 = load i64, ptr %13, align 8, !tbaa !14
  %337 = load ptr, ptr %10, align 8, !tbaa !16
  %338 = load i32, ptr %9, align 4, !tbaa !9
  %339 = load i32, ptr %11, align 4, !tbaa !9
  %340 = mul nsw i32 %338, %339
  %341 = sext i32 %340 to i64
  %342 = getelementptr inbounds i16, ptr %337, i64 %341
  %343 = getelementptr inbounds i64, ptr %342, i64 1
  store i64 %336, ptr %343, align 8, !tbaa !18
  br label %344

344:                                              ; preds = %327
  %345 = load i32, ptr %9, align 4, !tbaa !9
  %346 = add nsw i32 %345, 1
  store i32 %346, ptr %9, align 4, !tbaa !9
  br label %324, !llvm.loop !189

347:                                              ; preds = %324
  call void @llvm.lifetime.end.p0(i64 4, ptr %21) #9
  call void @llvm.lifetime.end.p0(i64 4, ptr %20) #9
  call void @llvm.lifetime.end.p0(i64 4, ptr %19) #9
  call void @llvm.lifetime.end.p0(i64 4, ptr %18) #9
  call void @llvm.lifetime.end.p0(i64 4, ptr %17) #9
  call void @llvm.lifetime.end.p0(i64 4, ptr %16) #9
  call void @llvm.lifetime.end.p0(i64 4, ptr %15) #9
  call void @llvm.lifetime.end.p0(i64 4, ptr %14) #9
  call void @llvm.lifetime.end.p0(i64 8, ptr %13) #9
  call void @llvm.lifetime.end.p0(i64 8, ptr %12) #9
  call void @llvm.lifetime.end.p0(i64 4, ptr %11) #9
  call void @llvm.lifetime.end.p0(i64 8, ptr %10) #9
  call void @llvm.lifetime.end.p0(i64 4, ptr %9) #9
  ret void
}