; Function Attrs: nofree norecurse nosync nounwind memory(argmem: readwrite) uwtable
define internal void @pred8x8l_vertical_14_c(ptr noundef captures(none) %0, i32 noundef %1, i32 noundef %2, i64 noundef %3) #3 {
  %5 = lshr i64 %3, 1
  %.not = icmp eq i32 %1, 0
  %6 = xor i64 %5, -1
  %sext = shl i64 %6, 32
  %.neg = mul i64 %5, -4294967296
  %.pn.in = select i1 %.not, i64 %.neg, i64 %sext
  %.pn = ashr exact i64 %.pn.in, 31
  %.in.in = getelementptr inbounds i8, ptr %0, i64 %.pn
  %.in = load i16, ptr %.in.in, align 2, !tbaa !9
  %7 = zext i16 %.in to i32
  %8 = ashr exact i64 %.neg, 31
  %9 = getelementptr inbounds i8, ptr %0, i64 %8
  %10 = load i16, ptr %9, align 2, !tbaa !9
  %11 = zext i16 %10 to i32
  %12 = shl nuw nsw i32 %11, 1
  %13 = shl i64 %5, 32
  %sext83 = sub i64 4294967296, %13
  %14 = ashr exact i64 %sext83, 31
  %15 = getelementptr inbounds i8, ptr %0, i64 %14
  %16 = load i16, ptr %15, align 2, !tbaa !9
  %17 = zext i16 %16 to i32
  %18 = add nuw nsw i32 %17, 2
  %19 = add nuw nsw i32 %18, %7
  %20 = add nuw nsw i32 %19, %12
  %21 = lshr i32 %20, 2
  %22 = shl nuw nsw i32 %17, 1
  %sext84 = sub i64 8589934592, %13
  %23 = ashr exact i64 %sext84, 31
  %24 = getelementptr inbounds i8, ptr %0, i64 %23
  %25 = load i16, ptr %24, align 2, !tbaa !9
  %26 = zext i16 %25 to i32
  %27 = add nuw nsw i32 %26, 2
  %28 = add nuw nsw i32 %27, %11
  %29 = add nuw nsw i32 %28, %22
  %30 = lshr i32 %29, 2
  %31 = shl nuw nsw i32 %26, 1
  %sext85 = sub i64 12884901888, %13
  %32 = ashr exact i64 %sext85, 31
  %33 = getelementptr inbounds i8, ptr %0, i64 %32
  %34 = load i16, ptr %33, align 2, !tbaa !9
  %35 = zext i16 %34 to i32
  %36 = add nuw nsw i32 %18, %31
  %37 = add nuw nsw i32 %36, %35
  %38 = lshr i32 %37, 2
  %39 = shl nuw nsw i32 %35, 1
  %sext86 = sub i64 17179869184, %13
  %40 = ashr exact i64 %sext86, 31
  %41 = getelementptr inbounds i8, ptr %0, i64 %40
  %42 = load i16, ptr %41, align 2, !tbaa !9
  %43 = zext i16 %42 to i32
  %44 = add nuw nsw i32 %27, %39
  %45 = add nuw nsw i32 %44, %43
  %46 = lshr i32 %45, 2
  %47 = shl nuw nsw i32 %43, 1
  %sext87 = sub i64 21474836480, %13
  %48 = ashr exact i64 %sext87, 31
  %49 = getelementptr inbounds i8, ptr %0, i64 %48
  %50 = load i16, ptr %49, align 2, !tbaa !9
  %51 = zext i16 %50 to i32
  %52 = add nuw nsw i32 %35, 2
  %53 = add nuw nsw i32 %52, %47
  %54 = add nuw nsw i32 %53, %51
  %55 = lshr i32 %54, 2
  %56 = shl nuw nsw i32 %51, 1
  %sext88 = sub i64 25769803776, %13
  %57 = ashr exact i64 %sext88, 31
  %58 = getelementptr inbounds i8, ptr %0, i64 %57
  %59 = load i16, ptr %58, align 2, !tbaa !9
  %60 = zext i16 %59 to i32
  %61 = add nuw nsw i32 %43, 2
  %62 = add nuw nsw i32 %61, %56
  %63 = add nuw nsw i32 %62, %60
  %64 = lshr i32 %63, 2
  %65 = shl nuw nsw i32 %60, 1
  %sext89 = sub i64 30064771072, %13
  %66 = ashr exact i64 %sext89, 31
  %67 = getelementptr inbounds i8, ptr %0, i64 %66
  %68 = load i16, ptr %67, align 2, !tbaa !9
  %69 = zext i16 %68 to i32
  %70 = add nuw nsw i32 %51, 2
  %71 = add nuw nsw i32 %70, %65
  %72 = add nuw nsw i32 %71, %69
  %73 = lshr i32 %72, 2
  %.not90 = icmp eq i32 %2, 0
  br i1 %.not90, label %79, label %74

74:                                               ; preds = %4
  %sext93 = sub i64 34359738368, %13
  %75 = ashr exact i64 %sext93, 31
  %76 = getelementptr inbounds i8, ptr %0, i64 %75
  %77 = load i16, ptr %76, align 2, !tbaa !9
  %78 = zext i16 %77 to i32
  br label %79

79:                                               ; preds = %4, %74
  %80 = phi i32 [ %78, %74 ], [ %69, %4 ]
  %81 = shl nuw nsw i32 %69, 1
  %82 = add nuw nsw i32 %60, 2
  %83 = add nuw nsw i32 %82, %81
  %84 = add nuw nsw i32 %83, %80
  %85 = lshr i32 %84, 2
  %86 = trunc nuw i32 %21 to i16
  store i16 %86, ptr %0, align 2, !tbaa !9
  %87 = trunc nuw i32 %30 to i16
  %88 = getelementptr inbounds nuw i8, ptr %0, i64 2
  store i16 %87, ptr %88, align 2, !tbaa !9
  %89 = trunc nuw i32 %38 to i16
  %90 = getelementptr inbounds nuw i8, ptr %0, i64 4
  store i16 %89, ptr %90, align 2, !tbaa !9
  %91 = trunc nuw i32 %46 to i16
  %92 = getelementptr inbounds nuw i8, ptr %0, i64 6
  store i16 %91, ptr %92, align 2, !tbaa !9
  %93 = trunc nuw i32 %55 to i16
  %94 = getelementptr inbounds nuw i8, ptr %0, i64 8
  store i16 %93, ptr %94, align 2, !tbaa !9
  %95 = trunc nuw i32 %64 to i16
  %96 = getelementptr inbounds nuw i8, ptr %0, i64 10
  store i16 %95, ptr %96, align 2, !tbaa !9
  %97 = trunc nuw i32 %73 to i16
  %98 = getelementptr inbounds nuw i8, ptr %0, i64 12
  store i16 %97, ptr %98, align 2, !tbaa !9
  %99 = trunc nuw i32 %85 to i16
  %100 = getelementptr inbounds nuw i8, ptr %0, i64 14
  store i16 %99, ptr %100, align 2, !tbaa !9
  %101 = load i64, ptr %0, align 8, !tbaa !8
  %102 = load i64, ptr %94, align 8, !tbaa !8
  %sext96 = shl i64 %5, 32
  %103 = ashr exact i64 %sext96, 32
  br label %104

104:                                              ; preds = %79, %104
  %indvars.iv = phi i64 [ 1, %79 ], [ %indvars.iv.next, %104 ]
  %105 = mul nsw i64 %indvars.iv, %103
  %106 = getelementptr inbounds i16, ptr %0, i64 %105
  store i64 %101, ptr %106, align 8, !tbaa !8
  %107 = getelementptr inbounds nuw i8, ptr %106, i64 8
  store i64 %102, ptr %107, align 8, !tbaa !8
  %indvars.iv.next = add nuw nsw i64 %indvars.iv, 1
  %exitcond.not = icmp eq i64 %indvars.iv.next, 8
  br i1 %exitcond.not, label %108, label %104, !llvm.loop !188

108:                                              ; preds = %104
  ret void
}